; Function Attrs: mustprogress uwtable
define noundef ptr @_ZN7rocksdb21PeriodicTaskScheduler7DefaultEv() local_unnamed_addr #4 align 2 personality ptr @__gxx_personality_v0 {
entry:
  %0 = load atomic i8, ptr @_ZGVZN7rocksdb21PeriodicTaskScheduler7DefaultEvE5timer acquire, align 8
  %guard.uninitialized = icmp eq i8 %0, 0
  br i1 %guard.uninitialized, label %init.check, label %init.end, !prof !36

init.check:                                       ; preds = %entry
  %1 = tail call i32 @__cxa_guard_acquire(ptr nonnull @_ZGVZN7rocksdb21PeriodicTaskScheduler7DefaultEvE5timer) #20
  %tobool.not = icmp eq i32 %1, 0
  br i1 %tobool.not, label %init.end, label %init

init:                                             ; preds = %init.check
  %call = invoke noalias noundef nonnull dereferenceable(256) ptr @_Znwm(i64 noundef 256) #19
          to label %invoke.cont unwind label %lpad

invoke.cont:                                      ; preds = %init
  %call3 = invoke noundef nonnull align 8 dereferenceable(16) ptr @_ZN7rocksdb11SystemClock7DefaultEv()
          to label %invoke.cont2 unwind label %lpad1

invoke.cont2:                                     ; preds = %invoke.cont
  %2 = load ptr, ptr %call3, align 8
  invoke void @_ZN7rocksdb5TimerC2EPNS_11SystemClockE(ptr noundef nonnull align 8 dereferenceable(256) %call, ptr noundef %2)
          to label %invoke.cont5 unwind label %lpad1

invoke.cont5:                                     ; preds = %invoke.cont2
  store ptr %call, ptr @_ZZN7rocksdb21PeriodicTaskScheduler7DefaultEvE5timer, align 8
  tail call void @__cxa_guard_release(ptr nonnull @_ZGVZN7rocksdb21PeriodicTaskScheduler7DefaultEvE5timer) #20
  br label %init.end

init.end:                                         ; preds = %invoke.cont5, %init.check, %entry
  %3 = load ptr, ptr @_ZZN7rocksdb21PeriodicTaskScheduler7DefaultEvE5timer, align 8
  ret ptr %3

lpad:                                             ; preds = %init
  %4 = landingpad { ptr, i32 }
          cleanup
  br label %ehcleanup

lpad1:                                            ; preds = %invoke.cont2, %invoke.cont
  %5 = landingpad { ptr, i32 }
          cleanup
  tail call void @_ZdlPv(ptr noundef nonnull %call) #23
  br label %ehcleanup

ehcleanup:                                        ; preds = %lpad1, %lpad
  %.pn = phi { ptr, i32 } [ %5, %lpad1 ], [ %4, %lpad ]
  tail call void @__cxa_guard_abort(ptr nonnull @_ZGVZN7rocksdb21PeriodicTaskScheduler7DefaultEvE5timer) #20
  resume { ptr, i32 } %.pn
}